ccopy_reg
_reconstructor
p0
(cpyspark.sql.types
StructType
p1
c__builtin__
object
p2
Ntp3
Rp4
(dp5
S'fields'
p6
(lp7
g0
(cpyspark.sql.types
StructField
p8
g2
Ntp9
Rp10
(dp11
S'dataType'
p12
g0
(cpyspark.sql.types
DoubleType
p13
g2
Ntp14
Rp15
sS'metadata'
p16
(dp17
sS'name'
p18
S'@lat'
p19
sS'nullable'
p20
I01
sbag0
(g8
g2
Ntp21
Rp22
(dp23
g12
g15
sg16
(dp24
sg18
S'@lon'
p25
sg20
I01
sbag0
(g8
g2
Ntp26
Rp27
(dp28
g12
g15
sg16
(dp29
sg18
S'ele'
p30
sg20
I01
sbag0
(g8
g2
Ntp31
Rp32
(dp33
g12
g0
(g1
g2
Ntp34
Rp35
(dp36
g6
(lp37
g0
(g8
g2
Ntp38
Rp39
(dp40
g12
g0
(g1
g2
Ntp41
Rp42
(dp43
g6
(lp44
g0
(g8
g2
Ntp45
Rp46
(dp47
g12
g0
(cpyspark.sql.types
LongType
p48
g2
Ntp49
Rp50
sg16
(dp51
sg18
S'gpxtpx:atemp'
p52
sg20
I01
sbag0
(g8
g2
Ntp53
Rp54
(dp55
g12
g50
sg16
(dp56
sg18
S'gpxtpx:cad'
p57
sg20
I01
sbag0
(g8
g2
Ntp58
Rp59
(dp60
g12
g50
sg16
(dp61
sg18
S'gpxtpx:hr'
p62
sg20
I01
sbasS'names'
p63
(lp64
g52
ag57
ag62
asS'_needSerializeAnyField'
p65
I00
sbsg16
(dp66
sg18
S'gpxtpx:TrackPointExtension'
p67
sg20
I01
sbasg63
(lp68
g67
asg65
I01
sbsg16
(dp69
sg18
S'extensions'
p70
sg20
I01
sbag0
(g8
g2
Ntp71
Rp72
(dp73
g12
g0
(cpyspark.sql.types
StringType
p74
g2
Ntp75
Rp76
sg16
(dp77
sg18
S'time'
p78
sg20
I01
sbag0
(g8
g2
Ntp79
Rp80
(dp81
g12
g76
sg16
(dp82
sg18
S'athlete'
p83
sg20
I00
sbag0
(g8
g2
Ntp84
Rp85
(dp86
g12
g76
sg16
(dp87
sg18
S'activity_type'
p88
sg20
I00
sbasg63
(lp89
g19
ag25
ag30
ag70
ag78
ag83
ag88
asg65
I01
sb.