ccopy_reg
_reconstructor
p0
(cpyspark.sql.types
StructType
p1
c__builtin__
object
p2
Ntp3
Rp4
(dp5
S'fields'
p6
(lp7
g0
(cpyspark.sql.types
StructField
p8
g2
Ntp9
Rp10
(dp11
S'dataType'
p12
g0
(cpyspark.sql.types
DoubleType
p13
g2
Ntp14
Rp15
sS'metadata'
p16
(dp17
sS'name'
p18
S'@lat'
p19
sS'nullable'
p20
I01
sbag0
(g8
g2
Ntp21
Rp22
(dp23
g12
g15
sg16
(dp24
sg18
S'@lon'
p25
sg20
I01
sbag0
(g8
g2
Ntp26
Rp27
(dp28
g12
g15
sg16
(dp29
sg18
S'ele'
p30
sg20
I01
sbag0
(g8
g2
Ntp31
Rp32
(dp33
g12
g0
(g1
g2
Ntp34
Rp35
(dp36
g6
(lp37
g0
(g8
g2
Ntp38
Rp39
(dp40
g12
g0
(g1
g2
Ntp41
Rp42
(dp43
g6
(lp44
g0
(g8
g2
Ntp45
Rp46
(dp47
g12
g0
(cpyspark.sql.types
StringType
p48
g2
Ntp49
Rp50
sg16
(dp51
sg18
S'#VALUE'
p52
sg20
I01
sbag0
(g8
g2
Ntp53
Rp54
(dp55
g12
g0
(cpyspark.sql.types
LongType
p56
g2
Ntp57
Rp58
sg16
(dp59
sg18
S'gpxtpx:atemp'
p60
sg20
I01
sbag0
(g8
g2
Ntp61
Rp62
(dp63
g12
g58
sg16
(dp64
sg18
S'gpxtpx:cad'
p65
sg20
I01
sbag0
(g8
g2
Ntp66
Rp67
(dp68
g12
g58
sg16
(dp69
sg18
S'gpxtpx:hr'
p70
sg20
I01
sbasS'names'
p71
(lp72
g52
ag60
ag65
ag70
asS'_needSerializeAnyField'
p73
I00
sbsg16
(dp74
sg18
S'gpxtpx:TrackPointExtension'
p75
sg20
I01
sbasg71
(lp76
g75
asg73
I01
sbsg16
(dp77
sg18
S'extensions'
p78
sg20
I01
sbag0
(g8
g2
Ntp79
Rp80
(dp81
g12
g50
sg16
(dp82
sg18
S'time'
p83
sg20
I01
sbag0
(g8
g2
Ntp84
Rp85
(dp86
g12
g50
sg16
(dp87
sg18
S'athlete'
p88
sg20
I01
sbag0
(g8
g2
Ntp89
Rp90
(dp91
g12
g50
sg16
(dp92
sg18
S'activity_type'
p93
sg20
I01
sbasg71
(lp94
g19
ag25
ag30
ag78
ag83
ag88
ag93
asg73
I01
sb.